; ModuleID = '49/1335.c'
source_filename = "49/1335.c"
target datalayout = "e-m:e-p270:32:32-p271:32:32-p272:64:64-i64:64-f80:128-n8:16:32:64-S128"
target triple = "x86_64-pc-linux-gnu"

@.str = private unnamed_addr constant [3 x i8] c"%c\00", align 1
@.str.1 = private unnamed_addr constant [2 x i8] c"\0A\00", align 1

; Function Attrs: noinline nounwind uwtable
define dso_local i32 @main() #0 {
  %1 = alloca i32, align 4
  %2 = alloca i32, align 4
  %3 = alloca i32, align 4
  %4 = alloca i32, align 4
  %5 = alloca i32, align 4
  %6 = alloca i32, align 4
  %7 = alloca [550 x i8], align 16
  store i32 0, i32* %1, align 4
  %8 = getelementptr inbounds [550 x i8], [550 x i8]* %7, i64 0, i64 0
  %9 = call i32 (i8*, ...) bitcast (i32 (...)* @gets to i32 (i8*, ...)*)(i8* %8)
  %10 = getelementptr inbounds [550 x i8], [550 x i8]* %7, i64 0, i64 0
  %11 = call i64 @strlen(i8* %10) #3
  %12 = trunc i64 %11 to i32
  store i32 %12, i32* %6, align 4
  store i32 2, i32* %2, align 4
  br label %13

13:                                               ; preds = %85, %0
  %14 = load i32, i32* %2, align 4
  %15 = load i32, i32* %6, align 4
  %16 = icmp sle i32 %14, %15
  br i1 %16, label %17, label %88

17:                                               ; preds = %13
  store i32 0, i32* %3, align 4
  br label %18

18:                                               ; preds = %81, %17
  %19 = load i32, i32* %3, align 4
  %20 = load i32, i32* %6, align 4
  %21 = icmp slt i32 %19, %20
  br i1 %21, label %22, label %84

22:                                               ; preds = %18
  store i32 0, i32* %5, align 4
  %23 = load i32, i32* %3, align 4
  store i32 %23, i32* %4, align 4
  br label %24

24:                                               ; preds = %53, %22
  %25 = load i32, i32* %4, align 4
  %26 = load i32, i32* %3, align 4
  %27 = load i32, i32* %2, align 4
  %28 = add nsw i32 %26, %27
  %29 = icmp slt i32 %25, %28
  br i1 %29, label %30, label %56

30:                                               ; preds = %24
  %31 = load i32, i32* %4, align 4
  %32 = sext i32 %31 to i64
  %33 = getelementptr inbounds [550 x i8], [550 x i8]* %7, i64 0, i64 %32
  %34 = load i8, i8* %33, align 1
  %35 = sext i8 %34 to i32
  %36 = load i32, i32* %3, align 4
  %37 = load i32, i32* %2, align 4
  %38 = add nsw i32 %36, %37
  %39 = sub nsw i32 %38, 1
  %40 = load i32, i32* %4, align 4
  %41 = sub nsw i32 %39, %40
  %42 = load i32, i32* %3, align 4
  %43 = add nsw i32 %41, %42
  %44 = sext i32 %43 to i64
  %45 = getelementptr inbounds [550 x i8], [550 x i8]* %7, i64 0, i64 %44
  %46 = load i8, i8* %45, align 1
  %47 = sext i8 %46 to i32
  %48 = icmp eq i32 %35, %47
  br i1 %48, label %49, label %52

49:                                               ; preds = %30
  %50 = load i32, i32* %5, align 4
  %51 = add nsw i32 %50, 1
  store i32 %51, i32* %5, align 4
  br label %52

52:                                               ; preds = %49, %30
  br label %53

53:                                               ; preds = %52
  %54 = load i32, i32* %4, align 4
  %55 = add nsw i32 %54, 1
  store i32 %55, i32* %4, align 4
  br label %24

56:                                               ; preds = %24
  %57 = load i32, i32* %5, align 4
  %58 = load i32, i32* %2, align 4
  %59 = icmp eq i32 %57, %58
  br i1 %59, label %60, label %80

60:                                               ; preds = %56
  %61 = load i32, i32* %3, align 4
  store i32 %61, i32* %4, align 4
  br label %62

62:                                               ; preds = %75, %60
  %63 = load i32, i32* %4, align 4
  %64 = load i32, i32* %3, align 4
  %65 = load i32, i32* %2, align 4
  %66 = add nsw i32 %64, %65
  %67 = icmp slt i32 %63, %66
  br i1 %67, label %68, label %78

68:                                               ; preds = %62
  %69 = load i32, i32* %4, align 4
  %70 = sext i32 %69 to i64
  %71 = getelementptr inbounds [550 x i8], [550 x i8]* %7, i64 0, i64 %70
  %72 = load i8, i8* %71, align 1
  %73 = sext i8 %72 to i32
  %74 = call i32 (i8*, ...) @printf(i8* getelementptr inbounds ([3 x i8], [3 x i8]* @.str, i64 0, i64 0), i32 %73)
  br label %75

75:                                               ; preds = %68
  %76 = load i32, i32* %4, align 4
  %77 = add nsw i32 %76, 1
  store i32 %77, i32* %4, align 4
  br label %62

78:                                               ; preds = %62
  %79 = call i32 (i8*, ...) @printf(i8* getelementptr inbounds ([2 x i8], [2 x i8]* @.str.1, i64 0, i64 0))
  br label %80

80:                                               ; preds = %78, %56
  br label %81

81:                                               ; preds = %80
  %82 = load i32, i32* %3, align 4
  %83 = add nsw i32 %82, 1
  store i32 %83, i32* %3, align 4
  br label %18

84:                                               ; preds = %18
  br label %85

85:                                               ; preds = %84
  %86 = load i32, i32* %2, align 4
  %87 = add nsw i32 %86, 1
  store i32 %87, i32* %2, align 4
  br label %13

88:                                               ; preds = %13
  ret i32 0
}

declare dso_local i32 @gets(...) #1

; Function Attrs: nounwind readonly
declare dso_local i64 @strlen(i8*) #2

declare dso_local i32 @printf(i8*, ...) #1


!llvm.module.flags = !{!0}
!llvm.ident = !{!1}

!0 = !{i32 1, !"wchar_size", i32 4}
!1 = !{!"clang version 10.0.0-4ubuntu1 "}
